target datalayout = "e-m:e-p270:32:32-p271:32:32-p272:64:64-i64:64-i128:128-f80:128-n8:16:32:64-S128"
target triple = "x86_64-pc-linux-gnu"

; Function Attrs: nounwind uwtable
define float @stb_perlin_fbm_noise3(float noundef %0, float noundef %1, float noundef %2, float noundef %3, float noundef %4, i32 noundef %5) #0 {
  %7 = alloca float, align 4
  %8 = alloca float, align 4
  %9 = alloca float, align 4
  %10 = alloca float, align 4
  %11 = alloca float, align 4
  %12 = alloca i32, align 4
  %13 = alloca i32, align 4
  %14 = alloca float, align 4
  %15 = alloca float, align 4
  %16 = alloca float, align 4
  store float %0, ptr %7, align 4, !tbaa !3
  store float %1, ptr %8, align 4, !tbaa !3
  store float %2, ptr %9, align 4, !tbaa !3
  store float %3, ptr %10, align 4, !tbaa !3
  store float %4, ptr %11, align 4, !tbaa !3
  store i32 %5, ptr %12, align 4, !tbaa !7
  call void @llvm.lifetime.start.p0(i64 4, ptr %13) #4
  call void @llvm.lifetime.start.p0(i64 4, ptr %14) #4
  store float 1.000000e+00, ptr %14, align 4, !tbaa !3
  call void @llvm.lifetime.start.p0(i64 4, ptr %15) #4
  store float 1.000000e+00, ptr %15, align 4, !tbaa !3
  call void @llvm.lifetime.start.p0(i64 4, ptr %16) #4
  store float 0.000000e+00, ptr %16, align 4, !tbaa !3
  store i32 0, ptr %13, align 4, !tbaa !7
  br label %17

17:                                               ; preds = %43, %6
  %18 = load i32, ptr %13, align 4, !tbaa !7
  %19 = load i32, ptr %12, align 4, !tbaa !7
  %20 = icmp slt i32 %18, %19
  br i1 %20, label %21, label %46

21:                                               ; preds = %17
  %22 = load float, ptr %7, align 4, !tbaa !3
  %23 = load float, ptr %14, align 4, !tbaa !3
  %24 = fmul float %22, %23
  %25 = load float, ptr %8, align 4, !tbaa !3
  %26 = load float, ptr %14, align 4, !tbaa !3
  %27 = fmul float %25, %26
  %28 = load float, ptr %9, align 4, !tbaa !3
  %29 = load float, ptr %14, align 4, !tbaa !3
  %30 = fmul float %28, %29
  %31 = load i32, ptr %13, align 4, !tbaa !7
  %32 = trunc i32 %31 to i8
  %33 = call float @stb_perlin_noise3_internal(float noundef %24, float noundef %27, float noundef %30, i32 noundef 0, i32 noundef 0, i32 noundef 0, i8 noundef zeroext %32)
  %34 = load float, ptr %15, align 4, !tbaa !3
  %35 = load float, ptr %16, align 4, !tbaa !3
  %36 = call float @llvm.fmuladd.f32(float %33, float %34, float %35)
  store float %36, ptr %16, align 4, !tbaa !3
  %37 = load float, ptr %10, align 4, !tbaa !3
  %38 = load float, ptr %14, align 4, !tbaa !3
  %39 = fmul float %38, %37
  store float %39, ptr %14, align 4, !tbaa !3
  %40 = load float, ptr %11, align 4, !tbaa !3
  %41 = load float, ptr %15, align 4, !tbaa !3
  %42 = fmul float %41, %40
  store float %42, ptr %15, align 4, !tbaa !3
  br label %43

43:                                               ; preds = %21
  %44 = load i32, ptr %13, align 4, !tbaa !7
  %45 = add nsw i32 %44, 1
  store i32 %45, ptr %13, align 4, !tbaa !7
  br label %17, !llvm.loop !15

46:                                               ; preds = %17
  %47 = load float, ptr %16, align 4, !tbaa !3
  call void @llvm.lifetime.end.p0(i64 4, ptr %16) #4
  call void @llvm.lifetime.end.p0(i64 4, ptr %15) #4
  call void @llvm.lifetime.end.p0(i64 4, ptr %14) #4
  call void @llvm.lifetime.end.p0(i64 4, ptr %13) #4
  ret float %47
}