; Function Attrs: nofree norecurse nosync nounwind memory(read, inaccessiblemem: none) uwtable
define float @stb_perlin_fbm_noise3(float noundef %0, float noundef %1, float noundef %2, float noundef %3, float noundef %4, i32 noundef %5) local_unnamed_addr #4 {
  %7 = icmp sgt i32 %5, 0
  br i1 %7, label %.lr.ph, label %._crit_edge

.lr.ph:                                           ; preds = %6, %.lr.ph
  %.022 = phi float [ %13, %.lr.ph ], [ 0.000000e+00, %6 ]
  %.01621 = phi float [ %15, %.lr.ph ], [ 1.000000e+00, %6 ]
  %.01720 = phi float [ %14, %.lr.ph ], [ 1.000000e+00, %6 ]
  %.01819 = phi i32 [ %16, %.lr.ph ], [ 0, %6 ]
  %8 = fmul float %0, %.01720
  %9 = fmul float %1, %.01720
  %10 = fmul float %2, %.01720
  %11 = trunc i32 %.01819 to i8
  %12 = tail call float @stb_perlin_noise3_internal(float noundef %8, float noundef %9, float noundef %10, i32 noundef 0, i32 noundef 0, i32 noundef 0, i8 noundef zeroext %11)
  %13 = tail call float @llvm.fmuladd.f32(float %12, float %.01621, float %.022)
  %14 = fmul float %3, %.01720
  %15 = fmul float %4, %.01621
  %16 = add nuw nsw i32 %.01819, 1
  %exitcond.not = icmp eq i32 %16, %5
  br i1 %exitcond.not, label %._crit_edge, label %.lr.ph, !llvm.loop !10

._crit_edge:                                      ; preds = %.lr.ph, %6
  %.0.lcssa = phi float [ 0.000000e+00, %6 ], [ %13, %.lr.ph ]
  ret float %.0.lcssa
}